target datalayout = "e-m:e-p270:32:32-p271:32:32-p272:64:64-i64:64-i128:128-f80:128-n8:16:32:64-S128"
target triple = "x86_64-pc-linux-gnu"

%"class.duckdb_re2::Regexp::ParseState" = type { i32, %"class.duckdb_re2::StringPiece", ptr, ptr, i32, i32 }
%"class.duckdb_re2::StringPiece" = type { ptr, i64 }

; Function Attrs: mustprogress uwtable
define hidden noundef zeroext i1 @_ZN10duckdb_re26Regexp10ParseState12PushSimpleOpENS_8RegexpOpE(ptr noundef nonnull align 8 dereferenceable(48) %0, i32 noundef %1) #1 align 2 personality ptr @__gxx_personality_v0 {
  %3 = alloca ptr, align 8
  %4 = alloca i32, align 4
  %5 = alloca ptr, align 8
  %6 = alloca ptr, align 8
  %7 = alloca i32, align 4
  store ptr %0, ptr %3, align 8, !tbaa !7
  store i32 %1, ptr %4, align 4, !tbaa !61
  %8 = load ptr, ptr %3, align 8
  call void @llvm.lifetime.start.p0(i64 8, ptr %5) #19
  %9 = call noalias noundef nonnull ptr @_Znwm(i64 noundef 40) #23
  %10 = load i32, ptr %4, align 4, !tbaa !61
  %11 = getelementptr inbounds nuw %"class.duckdb_re2::Regexp::ParseState", ptr %8, i32 0, i32 0
  %12 = load i32, ptr %11, align 8, !tbaa !16
  invoke void @_ZN10duckdb_re26RegexpC1ENS_8RegexpOpENS0_10ParseFlagsE(ptr noundef nonnull align 8 dereferenceable(40) %9, i32 noundef %10, i32 noundef %12)
          to label %13 unwind label %16

13:                                               ; preds = %2
  store ptr %9, ptr %5, align 8, !tbaa !29
  %14 = load ptr, ptr %5, align 8, !tbaa !29
  %15 = call noundef zeroext i1 @_ZN10duckdb_re26Regexp10ParseState10PushRegexpEPS0_(ptr noundef nonnull align 8 dereferenceable(48) %8, ptr noundef %14)
  call void @llvm.lifetime.end.p0(i64 8, ptr %5) #19
  ret i1 %15

16:                                               ; preds = %2
  %17 = landingpad { ptr, i32 }
          cleanup
  %18 = extractvalue { ptr, i32 } %17, 0
  store ptr %18, ptr %6, align 8
  %19 = extractvalue { ptr, i32 } %17, 1
  store i32 %19, ptr %7, align 4
  call void @_ZdlPv(ptr noundef %9) #21
  call void @llvm.lifetime.end.p0(i64 8, ptr %5) #19
  br label %20

20:                                               ; preds = %16
  %21 = load ptr, ptr %6, align 8
  %22 = load i32, ptr %7, align 4
  %23 = insertvalue { ptr, i32 } poison, ptr %21, 0
  %24 = insertvalue { ptr, i32 } %23, i32 %22, 1
  resume { ptr, i32 } %24
}

; Function Attrs: inlinehint mustprogress nounwind uwtable
define linkonce_odr hidden noundef i32 @_ZN10duckdb_re2orENS_6Regexp10ParseFlagsES1_(i32 noundef %0, i32 noundef %1) #3 comdat {
  %3 = alloca i32, align 4
  %4 = alloca i32, align 4
  store i32 %0, ptr %3, align 4, !tbaa !10
  store i32 %1, ptr %4, align 4, !tbaa !10
  %5 = load i32, ptr %3, align 4, !tbaa !10
  %6 = load i32, ptr %4, align 4, !tbaa !10
  %7 = or i32 %5, %6
  ret i32 %7
}

; Function Attrs: inlinehint mustprogress nounwind uwtable
define linkonce_odr hidden noundef i32 @_ZN10duckdb_re2anENS_6Regexp10ParseFlagsES1_(i32 noundef %0, i32 noundef %1) #3 comdat {
  %3 = alloca i32, align 4
  %4 = alloca i32, align 4
  store i32 %0, ptr %3, align 4, !tbaa !10
  store i32 %1, ptr %4, align 4, !tbaa !10
  %5 = load i32, ptr %3, align 4, !tbaa !10
  %6 = load i32, ptr %4, align 4, !tbaa !10
  %7 = and i32 %5, %6
  ret i32 %7
}

; Function Attrs: mustprogress uwtable
define hidden noundef zeroext i1 @_ZN10duckdb_re26Regexp10ParseState10PushDollarEv(ptr noundef nonnull align 8 dereferenceable(48) %0) #1 align 2 {
  %2 = alloca i1, align 1
  %3 = alloca ptr, align 8
  %4 = alloca i32, align 4
  %5 = alloca i8, align 1
  store ptr %0, ptr %3, align 8, !tbaa !7
  %6 = load ptr, ptr %3, align 8
  %7 = getelementptr inbounds nuw %"class.duckdb_re2::Regexp::ParseState", ptr %6, i32 0, i32 0
  %8 = load i32, ptr %7, align 8, !tbaa !16
  %9 = call noundef i32 @_ZN10duckdb_re2anENS_6Regexp10ParseFlagsES1_(i32 noundef %8, i32 noundef 16)
  %10 = icmp ne i32 %9, 0
  br i1 %10, label %11, label %24

11:                                               ; preds = %1
  call void @llvm.lifetime.start.p0(i64 4, ptr %4) #19
  %12 = getelementptr inbounds nuw %"class.duckdb_re2::Regexp::ParseState", ptr %6, i32 0, i32 0
  %13 = load i32, ptr %12, align 8, !tbaa !16
  store i32 %13, ptr %4, align 4, !tbaa !10
  %14 = getelementptr inbounds nuw %"class.duckdb_re2::Regexp::ParseState", ptr %6, i32 0, i32 0
  %15 = load i32, ptr %14, align 8, !tbaa !16
  %16 = call noundef i32 @_ZN10duckdb_re2orENS_6Regexp10ParseFlagsES1_(i32 noundef %15, i32 noundef 8192)
  %17 = getelementptr inbounds nuw %"class.duckdb_re2::Regexp::ParseState", ptr %6, i32 0, i32 0
  store i32 %16, ptr %17, align 8, !tbaa !16
  call void @llvm.lifetime.start.p0(i64 1, ptr %5) #19
  %18 = call noundef zeroext i1 @_ZN10duckdb_re26Regexp10ParseState12PushSimpleOpENS_8RegexpOpE(ptr noundef nonnull align 8 dereferenceable(48) %6, i32 noundef 19)
  %19 = zext i1 %18 to i8
  store i8 %19, ptr %5, align 1, !tbaa !71
  %20 = load i32, ptr %4, align 4, !tbaa !10
  %21 = getelementptr inbounds nuw %"class.duckdb_re2::Regexp::ParseState", ptr %6, i32 0, i32 0
  store i32 %20, ptr %21, align 8, !tbaa !16
  %22 = load i8, ptr %5, align 1, !tbaa !71, !range !73, !noundef !74
  %23 = trunc i8 %22 to i1
  store i1 %23, ptr %2, align 1
  call void @llvm.lifetime.end.p0(i64 1, ptr %5) #19
  call void @llvm.lifetime.end.p0(i64 4, ptr %4) #19
  br label %26

24:                                               ; preds = %1
  %25 = call noundef zeroext i1 @_ZN10duckdb_re26Regexp10ParseState12PushSimpleOpENS_8RegexpOpE(ptr noundef nonnull align 8 dereferenceable(48) %6, i32 noundef 15)
  store i1 %25, ptr %2, align 1
  br label %26

26:                                               ; preds = %24, %11
  %27 = load i1, ptr %2, align 1
  ret i1 %27
}