; Function Attrs: mustprogress uwtable
define hidden noundef zeroext i1 @_ZN10duckdb_re26Regexp10ParseState10PushDollarEv(ptr noundef nonnull align 8 captures(none) dereferenceable(48) %0) local_unnamed_addr #9 align 2 personality ptr @__gxx_personality_v0 {
  %2 = load i32, ptr %0, align 8, !tbaa !7
  %3 = and i32 %2, 16
  %.not = icmp eq i32 %3, 0
  br i1 %.not, label %10, label %4

4:                                                ; preds = %1
  %5 = or i32 %2, 8192
  store i32 %5, ptr %0, align 8, !tbaa !7
  %6 = tail call noalias noundef nonnull dereferenceable(40) ptr @_Znwm(i64 noundef 40) #33
  invoke void @_ZN10duckdb_re26RegexpC1ENS_8RegexpOpENS0_10ParseFlagsE(ptr noundef nonnull align 8 dereferenceable(40) %6, i32 noundef 19, i32 noundef %5)
          to label %_ZN10duckdb_re26Regexp10ParseState12PushSimpleOpENS_8RegexpOpE.exit unwind label %7

common.resume:                                    ; preds = %12, %7
  %.sink = phi ptr [ %11, %12 ], [ %6, %7 ]
  %common.resume.op = phi { ptr, i32 } [ %13, %12 ], [ %8, %7 ]
  tail call void @_ZdlPv(ptr noundef nonnull %.sink) #30
  resume { ptr, i32 } %common.resume.op

7:                                                ; preds = %4
  %8 = landingpad { ptr, i32 }
          cleanup
  br label %common.resume

_ZN10duckdb_re26Regexp10ParseState12PushSimpleOpENS_8RegexpOpE.exit: ; preds = %4
  %9 = tail call noundef zeroext i1 @_ZN10duckdb_re26Regexp10ParseState10PushRegexpEPS0_(ptr noundef nonnull align 8 dereferenceable(48) %0, ptr noundef nonnull %6)
  store i32 %2, ptr %0, align 8, !tbaa !7
  br label %15

10:                                               ; preds = %1
  %11 = tail call noalias noundef nonnull dereferenceable(40) ptr @_Znwm(i64 noundef 40) #33
  invoke void @_ZN10duckdb_re26RegexpC1ENS_8RegexpOpENS0_10ParseFlagsE(ptr noundef nonnull align 8 dereferenceable(40) %11, i32 noundef 15, i32 noundef %2)
          to label %_ZN10duckdb_re26Regexp10ParseState12PushSimpleOpENS_8RegexpOpE.exit3 unwind label %12

12:                                               ; preds = %10
  %13 = landingpad { ptr, i32 }
          cleanup
  br label %common.resume

_ZN10duckdb_re26Regexp10ParseState12PushSimpleOpENS_8RegexpOpE.exit3: ; preds = %10
  %14 = tail call noundef zeroext i1 @_ZN10duckdb_re26Regexp10ParseState10PushRegexpEPS0_(ptr noundef nonnull align 8 dereferenceable(48) %0, ptr noundef nonnull %11)
  br label %15

15:                                               ; preds = %_ZN10duckdb_re26Regexp10ParseState12PushSimpleOpENS_8RegexpOpE.exit3, %_ZN10duckdb_re26Regexp10ParseState12PushSimpleOpENS_8RegexpOpE.exit
  ret i1 true
}